; Function Attrs: nounwind uwtable
define zeroext range(i8 0, 2) i8 @l_Array_anyMUnsafe_any___at_Lean_IR_ExplicitBoxing_getScrutineeType___spec__1(ptr noundef readonly captures(none) %0, i64 noundef %1, i64 noundef %2) local_unnamed_addr #0 {
  %.not46 = icmp eq i64 %1, %2
  br i1 %.not46, label %.loopexit, label %.lr.ph

.lr.ph:                                           ; preds = %3
  %4 = getelementptr inbounds nuw i8, ptr %0, i64 24
  br label %7

5:                                                ; preds = %lean_dec.exit27
  %6 = add i64 %.02047, 1
  %.not = icmp eq i64 %6, %2
  br i1 %.not, label %.loopexit, label %7

7:                                                ; preds = %.lr.ph, %5
  %.02047 = phi i64 [ %1, %.lr.ph ], [ %6, %5 ]
  %8 = getelementptr inbounds nuw [0 x ptr], ptr %4, i64 0, i64 %.02047
  %9 = load ptr, ptr %8, align 8, !tbaa !4
  %10 = ptrtoint ptr %9 to i64
  %11 = and i64 %10, 1
  %.not.i33 = icmp eq i64 %11, 0
  br i1 %.not.i33, label %12, label %lean_obj_tag.exit

12:                                               ; preds = %7
  %.val.i.i = load i32, ptr %9, align 4, !tbaa !10
  %13 = icmp sgt i32 %.val.i.i, 0
  br i1 %13, label %14, label %16, !prof !13

14:                                               ; preds = %12
  %15 = add nuw i32 %.val.i.i, 1
  store i32 %15, ptr %9, align 4, !tbaa !10
  br label %lean_obj_tag.exit.thread

16:                                               ; preds = %12
  %.not.i.i = icmp eq i32 %.val.i.i, 0
  br i1 %.not.i.i, label %lean_obj_tag.exit.thread, label %17

17:                                               ; preds = %16
  tail call void @lean_inc_ref_cold(ptr noundef nonnull %9) #6
  br label %lean_obj_tag.exit.thread

lean_obj_tag.exit:                                ; preds = %7
  %18 = and i64 %10, 8589934590
  %19 = icmp eq i64 %18, 0
  br i1 %19, label %22, label %.loopexit

lean_obj_tag.exit.thread:                         ; preds = %17, %16, %14
  %20 = getelementptr i8, ptr %9, i64 4
  %.val.i = load i32, ptr %20, align 4
  %21 = icmp ult i32 %.val.i, 16777216
  br i1 %21, label %22, label %.thread

22:                                               ; preds = %lean_obj_tag.exit.thread, %lean_obj_tag.exit
  %23 = getelementptr inbounds nuw i8, ptr %9, i64 8
  %24 = load ptr, ptr %23, align 8, !tbaa !4
  %25 = ptrtoint ptr %24 to i64
  %26 = and i64 %25, 1
  %.not44 = icmp eq i64 %26, 0
  br i1 %.not44, label %27, label %lean_inc.exit

27:                                               ; preds = %22
  %.val.i35 = load i32, ptr %24, align 4, !tbaa !10
  %28 = icmp sgt i32 %.val.i35, 0
  br i1 %28, label %29, label %31, !prof !13

29:                                               ; preds = %27
  %30 = add nuw i32 %.val.i35, 1
  store i32 %30, ptr %24, align 4, !tbaa !10
  br label %lean_inc.exit

31:                                               ; preds = %27
  %.not.i36 = icmp eq i32 %.val.i35, 0
  br i1 %.not.i36, label %lean_inc.exit, label %32

32:                                               ; preds = %31
  tail call void @lean_inc_ref_cold(ptr noundef nonnull %24) #6
  br label %lean_inc.exit

lean_inc.exit:                                    ; preds = %32, %31, %29, %22
  br i1 %.not.i33, label %33, label %lean_dec.exit28

33:                                               ; preds = %lean_inc.exit
  %34 = load i32, ptr %9, align 4, !tbaa !10
  %35 = icmp sgt i32 %34, 1
  br i1 %35, label %36, label %38, !prof !13

36:                                               ; preds = %33
  %37 = add nsw i32 %34, -1
  store i32 %37, ptr %9, align 4, !tbaa !10
  br label %lean_dec.exit28

38:                                               ; preds = %33
  %.not.i = icmp eq i32 %34, 0
  br i1 %.not.i, label %lean_dec.exit28, label %39

39:                                               ; preds = %38
  tail call void @lean_dec_ref_cold(ptr noundef nonnull %9) #6
  br label %lean_dec.exit28

lean_dec.exit28:                                  ; preds = %39, %38, %36, %lean_inc.exit
  %40 = tail call zeroext i8 @l_Lean_IR_CtorInfo_isScalar(ptr noundef %24) #6
  br i1 %.not44, label %41, label %lean_dec.exit27

41:                                               ; preds = %lean_dec.exit28
  %42 = load i32, ptr %24, align 4, !tbaa !10
  %43 = icmp sgt i32 %42, 1
  br i1 %43, label %44, label %46, !prof !13

44:                                               ; preds = %41
  %45 = add nsw i32 %42, -1
  store i32 %45, ptr %24, align 4, !tbaa !10
  br label %lean_dec.exit27

46:                                               ; preds = %41
  %.not.i29 = icmp eq i32 %42, 0
  br i1 %.not.i29, label %lean_dec.exit27, label %47

47:                                               ; preds = %46
  tail call void @lean_dec_ref_cold(ptr noundef nonnull %24) #6
  br label %lean_dec.exit27

lean_dec.exit27:                                  ; preds = %47, %46, %44, %lean_dec.exit28
  %48 = icmp eq i8 %40, 0
  br i1 %48, label %.loopexit, label %5

.thread:                                          ; preds = %lean_obj_tag.exit.thread
  %49 = load i32, ptr %9, align 4, !tbaa !10
  %50 = icmp sgt i32 %49, 1
  br i1 %50, label %51, label %53, !prof !13

51:                                               ; preds = %.thread
  %52 = add nsw i32 %49, -1
  store i32 %52, ptr %9, align 4, !tbaa !10
  br label %.loopexit

53:                                               ; preds = %.thread
  %.not.i31 = icmp eq i32 %49, 0
  br i1 %.not.i31, label %.loopexit, label %54

54:                                               ; preds = %53
  tail call void @lean_dec_ref_cold(ptr noundef nonnull %9) #6
  br label %.loopexit

.loopexit:                                        ; preds = %5, %lean_dec.exit27, %lean_obj_tag.exit, %3, %54, %53, %51
  %.3.ph = phi i8 [ 1, %51 ], [ 1, %53 ], [ 1, %54 ], [ 0, %3 ], [ 0, %5 ], [ 1, %lean_dec.exit27 ], [ 1, %lean_obj_tag.exit ]
  ret i8 %.3.ph
}